; Function Attrs: mustprogress nofree norecurse nosync nounwind willreturn memory(read, inaccessiblemem: none) uwtable
define noundef i64 @_ZNK5arrow8internal7CpuInfo9CacheSizeENS1_10CacheLevelE(ptr noundef nonnull readonly align 8 captures(none) dereferenceable(8) %0, i32 noundef %1) local_unnamed_addr #5 align 2 {
  %3 = load ptr, ptr %0, align 8, !tbaa !3
  %4 = getelementptr inbounds nuw i8, ptr %3, i64 64
  %5 = sext i32 %1 to i64
  %6 = getelementptr inbounds nuw [3 x i64], ptr %4, i64 0, i64 %5
  %7 = load i64, ptr %6, align 8, !tbaa !37
  %8 = icmp sgt i64 %7, 0
  br i1 %8, label %._crit_edge, label %9

9:                                                ; preds = %2
  %10 = icmp eq i32 %1, 0
  br i1 %10, label %._crit_edge, label %11

11:                                               ; preds = %9
  %12 = getelementptr inbounds [3 x i64], ptr @__const._ZNK5arrow8internal7CpuInfo9CacheSizeENS1_10CacheLevelE.kDefaultCacheSizes, i64 0, i64 %5
  %13 = add nsw i32 %1, -1
  %14 = sext i32 %13 to i64
  %15 = getelementptr inbounds nuw [3 x i64], ptr %4, i64 0, i64 %14
  %16 = load i64, ptr %12, align 8, !tbaa !37
  %17 = load i64, ptr %15, align 8, !tbaa !37
  %18 = tail call i64 @llvm.smax.i64(i64 %16, i64 %17)
  br label %._crit_edge

._crit_edge:                                      ; preds = %9, %2, %11
  %.0 = phi i64 [ %18, %11 ], [ %7, %2 ], [ 32768, %9 ]
  ret i64 %.0
}